target datalayout = "e-m:e-p270:32:32-p271:32:32-p272:64:64-i64:64-i128:128-f80:128-n8:16:32:64-S128"
target triple = "x86_64-pc-linux-gnu"

%struct.AVCodecContext = type { ptr, i32, i32, ptr, i32, i32, ptr, ptr, ptr, i64, i32, i32, ptr, i32, %struct.AVRational, %struct.AVRational, %struct.AVRational, i32, i32, i32, i32, i32, %struct.AVRational, i32, i32, i32, i32, i32, i32, i32, i32, i32, i32, i32, ptr, ptr, i32, float, float, float, float, float, float, float, float, float, i32, i32, i32, i32, i32, i32, i32, i32, i32, i32, i32, i32, ptr, ptr, ptr, i32, i32, i32, i32, i32, i32, i32, i32, i32, i32, %struct.AVChannelLayout, i32, i32, i32, i32, i32, i32, i32, i32, ptr, i32, i32, i32, float, float, i32, i32, i32, i32, i32, ptr, i64, i64, float, float, i32, i32, ptr, ptr, i32, i32, i32, i32, i32, ptr, ptr, ptr, ptr, i32, i32, [8 x i64], i32, i32, i32, i32, i32, i32, i32, ptr, ptr, i32, i32, i32, i32, i32, i32, i32, i32, i32, i32, ptr, ptr, i32, i32, ptr, ptr, ptr, ptr, i32, i32, i64, i32, i32, i64, ptr, i64, ptr, i32, ptr, i32 }
%struct.AVRational = type { i32, i32 }
%struct.AVChannelLayout = type { i32, i32, %union.anon.1, ptr }
%union.anon.1 = type { i64 }
%struct.VAAPIEncodeContext = type { %struct.FFHWBaseEncodeContext, ptr, i32, i32, i32, i32, i32, i32, ptr, ptr, i32, i32, i32, i32, i32, i32, [4 x %struct._VAConfigAttrib], i32, i32, i32, ptr, ptr, [4 x i32], [4 x ptr], [4 x i64], i32, %struct._VAEncMiscParameterRateControl, %struct._VAEncMiscParameterHRD, %struct._VAEncMiscParameterFrameRate, %struct._VAEncMiscParameterBufferMaxFrameSize, %struct._VAEncMiscParameterBufferQualityLevel, ptr, ptr, i32, i32, i32, i32, i32, i32, [20 x i32], [22 x i32], [21 x i32], [23 x i32], i32, i32, ptr, i32, i32 }
%struct.FFHWBaseEncodeContext = type { ptr, ptr, ptr, i32, i32, i32, i32, i32, i32, ptr, ptr, ptr, ptr, ptr, ptr, ptr, ptr, [2 x ptr], i32, i64, i64, i64, i64, i64, i64, i64, [112 x i64], i32, i32, i32, i32, i32, i32, i32, i32, i32, i32, i32, i32, i32, i32, i32, i32, ptr, i32, ptr, i32, ptr }
%struct._VAConfigAttrib = type { i32, i32 }
%struct._VAEncMiscParameterRateControl = type { i32, i32, i32, i32, i32, i32, %union.anon.2, i32, i32, i32, i32, [4 x i32] }
%union.anon.2 = type { %struct.anon }
%struct.anon = type { i32 }
%struct._VAEncMiscParameterHRD = type { i32, i32, [4 x i32] }
%struct._VAEncMiscParameterFrameRate = type { i32, %union.anon.3, [4 x i32] }
%union.anon.3 = type { %struct.anon.4 }
%struct.anon.4 = type { i32 }
%struct._VAEncMiscParameterBufferMaxFrameSize = type { i32, i32, [4 x i32] }
%struct._VAEncMiscParameterBufferQualityLevel = type { i32, [4 x i32] }
%struct.VAAPIEncodeMPEG2Context = type { %struct.VAAPIEncodeContext, i32, i32, i32, i32, i32, i32, i32, %struct.AVRational, i32, i32, i64, %struct.MPEG2RawSequenceHeader, %struct.MPEG2RawExtensionData, %struct.MPEG2RawExtensionData, %struct.MPEG2RawGroupOfPicturesHeader, %struct.MPEG2RawPictureHeader, %struct.MPEG2RawExtensionData, ptr, %struct.CodedBitstreamFragment }
%struct.MPEG2RawSequenceHeader = type { i8, i16, i16, i8, i8, i32, i16, i8, i8, [64 x i8], i8, [64 x i8] }
%struct.MPEG2RawGroupOfPicturesHeader = type { i8, i32, i8, i8 }
%struct.MPEG2RawPictureHeader = type { i8, i16, i8, i16, i8, i8, i8, i8, %struct.MPEG2RawExtraInformation }
%struct.MPEG2RawExtraInformation = type { ptr, ptr, i64 }
%struct.MPEG2RawExtensionData = type { i8, i8, %union.anon.5 }
%union.anon.5 = type { %struct.MPEG2RawSequenceExtension, [248 x i8] }
%struct.MPEG2RawSequenceExtension = type { i8, i8, i8, i8, i8, i16, i8, i8, i8, i8 }
%struct.CodedBitstreamFragment = type { ptr, i64, i64, ptr, i32, i32, ptr }

@.str.59 = private unnamed_addr constant [60 x i8] c"Using fixed quantiser %d / %d / %d for I- / P- / B-frames.\0A\00", align 1

; Function Attrs: alwaysinline nounwind willreturn memory(none) uwtable
define internal i32 @av_clip_c(i32 noundef %0, i32 noundef %1, i32 noundef %2) #4 {
  %4 = alloca i32, align 4
  %5 = alloca i32, align 4
  %6 = alloca i32, align 4
  %7 = alloca i32, align 4
  store i32 %0, ptr %5, align 4, !tbaa !70
  store i32 %1, ptr %6, align 4, !tbaa !70
  store i32 %2, ptr %7, align 4, !tbaa !70
  %8 = load i32, ptr %5, align 4, !tbaa !70
  %9 = load i32, ptr %6, align 4, !tbaa !70
  %10 = icmp slt i32 %8, %9
  br i1 %10, label %11, label %13

11:                                               ; preds = %3
  %12 = load i32, ptr %6, align 4, !tbaa !70
  store i32 %12, ptr %4, align 4
  br label %21

13:                                               ; preds = %3
  %14 = load i32, ptr %5, align 4, !tbaa !70
  %15 = load i32, ptr %7, align 4, !tbaa !70
  %16 = icmp sgt i32 %14, %15
  br i1 %16, label %17, label %19

17:                                               ; preds = %13
  %18 = load i32, ptr %7, align 4, !tbaa !70
  store i32 %18, ptr %4, align 4
  br label %21

19:                                               ; preds = %13
  %20 = load i32, ptr %5, align 4, !tbaa !70
  store i32 %20, ptr %4, align 4
  br label %21

21:                                               ; preds = %19, %17, %11
  %22 = load i32, ptr %4, align 4
  ret i32 %22
}

; Function Attrs: cold nounwind optsize uwtable
define internal i32 @vaapi_encode_mpeg2_configure(ptr noundef %0) #0 {
  %2 = alloca i32, align 4
  %3 = alloca ptr, align 8
  %4 = alloca ptr, align 8
  %5 = alloca ptr, align 8
  %6 = alloca i32, align 4
  %7 = alloca i32, align 4
  store ptr %0, ptr %3, align 8, !tbaa !4
  call void @llvm.lifetime.start.p0(i64 8, ptr %4) #12
  %8 = load ptr, ptr %3, align 8, !tbaa !4
  %9 = getelementptr inbounds nuw %struct.AVCodecContext, ptr %8, i32 0, i32 6
  %10 = load ptr, ptr %9, align 8, !tbaa !9
  store ptr %10, ptr %4, align 8, !tbaa !29
  call void @llvm.lifetime.start.p0(i64 8, ptr %5) #12
  %11 = load ptr, ptr %3, align 8, !tbaa !4
  %12 = getelementptr inbounds nuw %struct.AVCodecContext, ptr %11, i32 0, i32 6
  %13 = load ptr, ptr %12, align 8, !tbaa !9
  store ptr %13, ptr %5, align 8, !tbaa !31
  call void @llvm.lifetime.start.p0(i64 4, ptr %6) #12
  %14 = load ptr, ptr %5, align 8, !tbaa !31
  %15 = getelementptr inbounds nuw %struct.VAAPIEncodeMPEG2Context, ptr %14, i32 0, i32 18
  %16 = load ptr, ptr %3, align 8, !tbaa !4
  %17 = call i32 @ff_cbs_init(ptr noundef %15, i32 noundef 2, ptr noundef %16)
  store i32 %17, ptr %6, align 4, !tbaa !70
  %18 = load i32, ptr %6, align 4, !tbaa !70
  %19 = icmp slt i32 %18, 0
  br i1 %19, label %20, label %22

20:                                               ; preds = %1
  %21 = load i32, ptr %6, align 4, !tbaa !70
  store i32 %21, ptr %2, align 4
  store i32 1, ptr %7, align 4
  br label %139

22:                                               ; preds = %1
  %23 = load ptr, ptr %4, align 8, !tbaa !29
  %24 = getelementptr inbounds nuw %struct.VAAPIEncodeContext, ptr %23, i32 0, i32 13
  %25 = load i32, ptr %24, align 4, !tbaa !71
  %26 = icmp eq i32 %25, 16
  br i1 %26, label %27, label %104

27:                                               ; preds = %22
  %28 = load ptr, ptr %4, align 8, !tbaa !29
  %29 = getelementptr inbounds nuw %struct.VAAPIEncodeContext, ptr %28, i32 0, i32 10
  %30 = load i32, ptr %29, align 8, !tbaa !72
  %31 = call i32 @av_clip_c(i32 noundef %30, i32 noundef 1, i32 noundef 31) #13
  %32 = load ptr, ptr %5, align 8, !tbaa !31
  %33 = getelementptr inbounds nuw %struct.VAAPIEncodeMPEG2Context, ptr %32, i32 0, i32 4
  store i32 %31, ptr %33, align 4, !tbaa !73
  %34 = load ptr, ptr %3, align 8, !tbaa !4
  %35 = getelementptr inbounds nuw %struct.AVCodecContext, ptr %34, i32 0, i32 39
  %36 = load float, ptr %35, align 4, !tbaa !74
  %37 = fpext nsz float %36 to double
  %38 = fcmp nsz ogt double %37, 0.000000e+00
  br i1 %38, label %39, label %57

39:                                               ; preds = %27
  %40 = load ptr, ptr %3, align 8, !tbaa !4
  %41 = getelementptr inbounds nuw %struct.AVCodecContext, ptr %40, i32 0, i32 39
  %42 = load float, ptr %41, align 4, !tbaa !74
  %43 = load ptr, ptr %5, align 8, !tbaa !31
  %44 = getelementptr inbounds nuw %struct.VAAPIEncodeMPEG2Context, ptr %43, i32 0, i32 4
  %45 = load i32, ptr %44, align 4, !tbaa !73
  %46 = sitofp i32 %45 to float
  %47 = load ptr, ptr %3, align 8, !tbaa !4
  %48 = getelementptr inbounds nuw %struct.AVCodecContext, ptr %47, i32 0, i32 40
  %49 = load float, ptr %48, align 8, !tbaa !75
  %50 = call nsz float @llvm.fmuladd.f32(float %42, float %46, float %49)
  %51 = fpext nsz float %50 to double
  %52 = fadd nsz double %51, 5.000000e-01
  %53 = fptosi double %52 to i32
  %54 = call i32 @av_clip_c(i32 noundef %53, i32 noundef 1, i32 noundef 31) #13
  %55 = load ptr, ptr %5, align 8, !tbaa !31
  %56 = getelementptr inbounds nuw %struct.VAAPIEncodeMPEG2Context, ptr %55, i32 0, i32 3
  store i32 %54, ptr %56, align 8, !tbaa !76
  br label %63

57:                                               ; preds = %27
  %58 = load ptr, ptr %5, align 8, !tbaa !31
  %59 = getelementptr inbounds nuw %struct.VAAPIEncodeMPEG2Context, ptr %58, i32 0, i32 4
  %60 = load i32, ptr %59, align 4, !tbaa !73
  %61 = load ptr, ptr %5, align 8, !tbaa !31
  %62 = getelementptr inbounds nuw %struct.VAAPIEncodeMPEG2Context, ptr %61, i32 0, i32 3
  store i32 %60, ptr %62, align 8, !tbaa !76
  br label %63

63:                                               ; preds = %57, %39
  %64 = load ptr, ptr %3, align 8, !tbaa !4
  %65 = getelementptr inbounds nuw %struct.AVCodecContext, ptr %64, i32 0, i32 37
  %66 = load float, ptr %65, align 4, !tbaa !77
  %67 = fpext nsz float %66 to double
  %68 = fcmp nsz ogt double %67, 0.000000e+00
  br i1 %68, label %69, label %87

69:                                               ; preds = %63
  %70 = load ptr, ptr %3, align 8, !tbaa !4
  %71 = getelementptr inbounds nuw %struct.AVCodecContext, ptr %70, i32 0, i32 37
  %72 = load float, ptr %71, align 4, !tbaa !77
  %73 = load ptr, ptr %5, align 8, !tbaa !31
  %74 = getelementptr inbounds nuw %struct.VAAPIEncodeMPEG2Context, ptr %73, i32 0, i32 4
  %75 = load i32, ptr %74, align 4, !tbaa !73
  %76 = sitofp i32 %75 to float
  %77 = load ptr, ptr %3, align 8, !tbaa !4
  %78 = getelementptr inbounds nuw %struct.AVCodecContext, ptr %77, i32 0, i32 38
  %79 = load float, ptr %78, align 8, !tbaa !78
  %80 = call nsz float @llvm.fmuladd.f32(float %72, float %76, float %79)
  %81 = fpext nsz float %80 to double
  %82 = fadd nsz double %81, 5.000000e-01
  %83 = fptosi double %82 to i32
  %84 = call i32 @av_clip_c(i32 noundef %83, i32 noundef 1, i32 noundef 31) #13
  %85 = load ptr, ptr %5, align 8, !tbaa !31
  %86 = getelementptr inbounds nuw %struct.VAAPIEncodeMPEG2Context, ptr %85, i32 0, i32 5
  store i32 %84, ptr %86, align 8, !tbaa !79
  br label %93

87:                                               ; preds = %63
  %88 = load ptr, ptr %5, align 8, !tbaa !31
  %89 = getelementptr inbounds nuw %struct.VAAPIEncodeMPEG2Context, ptr %88, i32 0, i32 4
  %90 = load i32, ptr %89, align 4, !tbaa !73
  %91 = load ptr, ptr %5, align 8, !tbaa !31
  %92 = getelementptr inbounds nuw %struct.VAAPIEncodeMPEG2Context, ptr %91, i32 0, i32 5
  store i32 %90, ptr %92, align 8, !tbaa !79
  br label %93

93:                                               ; preds = %87, %69
  %94 = load ptr, ptr %3, align 8, !tbaa !4
  %95 = load ptr, ptr %5, align 8, !tbaa !31
  %96 = getelementptr inbounds nuw %struct.VAAPIEncodeMPEG2Context, ptr %95, i32 0, i32 3
  %97 = load i32, ptr %96, align 8, !tbaa !76
  %98 = load ptr, ptr %5, align 8, !tbaa !31
  %99 = getelementptr inbounds nuw %struct.VAAPIEncodeMPEG2Context, ptr %98, i32 0, i32 4
  %100 = load i32, ptr %99, align 4, !tbaa !73
  %101 = load ptr, ptr %5, align 8, !tbaa !31
  %102 = getelementptr inbounds nuw %struct.VAAPIEncodeMPEG2Context, ptr %101, i32 0, i32 5
  %103 = load i32, ptr %102, align 8, !tbaa !79
  call void (ptr, i32, ptr, ...) @av_log(ptr noundef %94, i32 noundef 48, ptr noundef @.str.59, i32 noundef %97, i32 noundef %100, i32 noundef %103)
  br label %111

104:                                              ; preds = %22
  %105 = load ptr, ptr %5, align 8, !tbaa !31
  %106 = getelementptr inbounds nuw %struct.VAAPIEncodeMPEG2Context, ptr %105, i32 0, i32 3
  store i32 16, ptr %106, align 8, !tbaa !76
  %107 = load ptr, ptr %5, align 8, !tbaa !31
  %108 = getelementptr inbounds nuw %struct.VAAPIEncodeMPEG2Context, ptr %107, i32 0, i32 4
  store i32 16, ptr %108, align 4, !tbaa !73
  %109 = load ptr, ptr %5, align 8, !tbaa !31
  %110 = getelementptr inbounds nuw %struct.VAAPIEncodeMPEG2Context, ptr %109, i32 0, i32 5
  store i32 16, ptr %110, align 8, !tbaa !79
  br label %111

111:                                              ; preds = %104, %93
  %112 = load ptr, ptr %3, align 8, !tbaa !4
  %113 = getelementptr inbounds nuw %struct.AVCodecContext, ptr %112, i32 0, i32 19
  %114 = load i32, ptr %113, align 4, !tbaa !67
  %115 = add nsw i32 %114, 16
  %116 = sub nsw i32 %115, 1
  %117 = and i32 %116, -16
  %118 = sdiv i32 %117, 16
  %119 = load ptr, ptr %4, align 8, !tbaa !29
  %120 = getelementptr inbounds nuw %struct.VAAPIEncodeContext, ptr %119, i32 0, i32 33
  store i32 %118, ptr %120, align 8, !tbaa !80
  %121 = load ptr, ptr %3, align 8, !tbaa !4
  %122 = getelementptr inbounds nuw %struct.AVCodecContext, ptr %121, i32 0, i32 18
  %123 = load i32, ptr %122, align 8, !tbaa !68
  %124 = add nsw i32 %123, 16
  %125 = sub nsw i32 %124, 1
  %126 = and i32 %125, -16
  %127 = sdiv i32 %126, 16
  %128 = load ptr, ptr %4, align 8, !tbaa !29
  %129 = getelementptr inbounds nuw %struct.VAAPIEncodeContext, ptr %128, i32 0, i32 34
  store i32 %127, ptr %129, align 4, !tbaa !81
  %130 = load ptr, ptr %4, align 8, !tbaa !29
  %131 = getelementptr inbounds nuw %struct.VAAPIEncodeContext, ptr %130, i32 0, i32 33
  %132 = load i32, ptr %131, align 8, !tbaa !80
  %133 = load ptr, ptr %4, align 8, !tbaa !29
  %134 = getelementptr inbounds nuw %struct.VAAPIEncodeContext, ptr %133, i32 0, i32 35
  store i32 %132, ptr %134, align 8, !tbaa !82
  %135 = load ptr, ptr %4, align 8, !tbaa !29
  %136 = getelementptr inbounds nuw %struct.VAAPIEncodeContext, ptr %135, i32 0, i32 36
  store i32 1, ptr %136, align 4, !tbaa !83
  %137 = load ptr, ptr %4, align 8, !tbaa !29
  %138 = getelementptr inbounds nuw %struct.VAAPIEncodeContext, ptr %137, i32 0, i32 44
  store i32 31, ptr %138, align 4, !tbaa !84
  store i32 0, ptr %2, align 4
  store i32 1, ptr %7, align 4
  br label %139

139:                                              ; preds = %111, %20
  call void @llvm.lifetime.end.p0(i64 4, ptr %6) #12
  call void @llvm.lifetime.end.p0(i64 8, ptr %5) #12
  call void @llvm.lifetime.end.p0(i64 8, ptr %4) #12
  %140 = load i32, ptr %2, align 4
  ret i32 %140
}