; Function Attrs: cold nounwind optsize uwtable
define internal range(i32 -2147483648, 1) i32 @vaapi_encode_mpeg2_configure(ptr noundef %0) #0 {
  %2 = getelementptr inbounds nuw i8, ptr %0, i64 32
  %3 = load ptr, ptr %2, align 8, !tbaa !4
  %4 = getelementptr inbounds nuw i8, ptr %3, i64 3024
  %5 = tail call i32 @ff_cbs_init(ptr noundef nonnull %4, i32 noundef 2, ptr noundef %0) #10
  %6 = icmp slt i32 %5, 0
  br i1 %6, label %66, label %7

7:                                                ; preds = %1
  %8 = getelementptr inbounds nuw i8, ptr %3, i64 1252
  %9 = load i32, ptr %8, align 4, !tbaa !64
  %10 = icmp eq i32 %9, 16
  br i1 %10, label %11, label %48

11:                                               ; preds = %7
  %12 = getelementptr inbounds nuw i8, ptr %3, i64 1240
  %13 = load i32, ptr %12, align 8, !tbaa !65
  %14 = tail call i32 @llvm.smax.i32(i32 %13, i32 1)
  %15 = tail call i32 @llvm.umin.i32(i32 %14, i32 31)
  %16 = getelementptr inbounds nuw i8, ptr %3, i64 1988
  store i32 %15, ptr %16, align 4, !tbaa !66
  %17 = getelementptr inbounds nuw i8, ptr %0, i64 212
  %18 = load float, ptr %17, align 4, !tbaa !67
  %19 = fcmp nsz ogt float %18, 0.000000e+00
  br i1 %19, label %20, label %30

20:                                               ; preds = %11
  %21 = uitofp nneg i32 %15 to float
  %22 = getelementptr inbounds nuw i8, ptr %0, i64 216
  %23 = load float, ptr %22, align 8, !tbaa !68
  %24 = tail call nsz float @llvm.fmuladd.f32(float %18, float %21, float %23)
  %25 = fpext nsz float %24 to double
  %26 = fadd nsz double %25, 5.000000e-01
  %27 = fptosi double %26 to i32
  %28 = tail call i32 @llvm.smax.i32(i32 %27, i32 1)
  %29 = tail call i32 @llvm.umin.i32(i32 %28, i32 31)
  br label %30

30:                                               ; preds = %11, %20
  %31 = phi i32 [ %29, %20 ], [ %15, %11 ]
  %32 = getelementptr inbounds nuw i8, ptr %3, i64 1984
  store i32 %31, ptr %32, align 8, !tbaa !69
  %33 = getelementptr inbounds nuw i8, ptr %0, i64 204
  %34 = load float, ptr %33, align 4, !tbaa !70
  %35 = fcmp nsz ogt float %34, 0.000000e+00
  br i1 %35, label %36, label %46

36:                                               ; preds = %30
  %37 = uitofp nneg i32 %15 to float
  %38 = getelementptr inbounds nuw i8, ptr %0, i64 208
  %39 = load float, ptr %38, align 8, !tbaa !71
  %40 = tail call nsz float @llvm.fmuladd.f32(float %34, float %37, float %39)
  %41 = fpext nsz float %40 to double
  %42 = fadd nsz double %41, 5.000000e-01
  %43 = fptosi double %42 to i32
  %44 = tail call i32 @llvm.smax.i32(i32 %43, i32 1)
  %45 = tail call i32 @llvm.umin.i32(i32 %44, i32 31)
  br label %46

46:                                               ; preds = %30, %36
  %.0.i.sink43 = phi i32 [ %45, %36 ], [ %15, %30 ]
  %47 = getelementptr inbounds nuw i8, ptr %3, i64 1992
  store i32 %.0.i.sink43, ptr %47, align 8, !tbaa !72
  tail call void (ptr, i32, ptr, ...) @av_log(ptr noundef nonnull %0, i32 noundef 48, ptr noundef nonnull @.str.59, i32 noundef %31, i32 noundef %15, i32 noundef %.0.i.sink43) #10
  br label %52

48:                                               ; preds = %7
  %49 = getelementptr inbounds nuw i8, ptr %3, i64 1984
  store i32 16, ptr %49, align 8, !tbaa !69
  %50 = getelementptr inbounds nuw i8, ptr %3, i64 1988
  store i32 16, ptr %50, align 4, !tbaa !66
  %51 = getelementptr inbounds nuw i8, ptr %3, i64 1992
  store i32 16, ptr %51, align 8, !tbaa !72
  br label %52

52:                                               ; preds = %48, %46
  %53 = getelementptr inbounds nuw i8, ptr %0, i64 116
  %54 = load i32, ptr %53, align 4, !tbaa !61
  %55 = add nsw i32 %54, 15
  %56 = ashr i32 %55, 4
  %57 = getelementptr inbounds nuw i8, ptr %3, i64 1584
  store i32 %56, ptr %57, align 8, !tbaa !73
  %58 = getelementptr inbounds nuw i8, ptr %0, i64 112
  %59 = load i32, ptr %58, align 8, !tbaa !62
  %60 = add nsw i32 %59, 15
  %61 = ashr i32 %60, 4
  %62 = getelementptr inbounds nuw i8, ptr %3, i64 1588
  store i32 %61, ptr %62, align 4, !tbaa !74
  %63 = getelementptr inbounds nuw i8, ptr %3, i64 1592
  store i32 %56, ptr %63, align 8, !tbaa !75
  %64 = getelementptr inbounds nuw i8, ptr %3, i64 1596
  store i32 1, ptr %64, align 4, !tbaa !76
  %65 = getelementptr inbounds nuw i8, ptr %3, i64 1956
  store i32 31, ptr %65, align 4, !tbaa !77
  br label %66

66:                                               ; preds = %1, %52
  %.0 = phi i32 [ 0, %52 ], [ %5, %1 ]
  ret i32 %.0
}